target datalayout = "e-m:e-p270:32:32-p271:32:32-p272:64:64-i64:64-i128:128-f80:128-n8:16:32:64-S128"
target triple = "x86_64-pc-linux-gnu"

%struct.TiffContext = type { ptr, ptr, %struct.GetByteContext, ptr, ptr, ptr, i32, i16, i32, i32, i32, i32, i32, i32, [256 x i32], i32, i32, i32, i32, i32, [2 x i32], i32, i32, i32, [4 x i32], i32, i32, i32, i32, [4 x i8], [4 x float], [4 x float], [4 x float], [3 x [4 x float]], [4 x [4 x float]], [4 x float], [4 x float], i32, [65536 x i16], i32, i16, i32, i32, i32, i32, i32, i32, i32, i32, ptr, i32, i32, i32, i32, i32, i32, ptr, i32, ptr, i32, i32, ptr }
%struct.GetByteContext = type { ptr, ptr, ptr }

; Function Attrs: nounwind uwtable
define internal void @camera_xyz_coeff(ptr noundef %0, ptr noundef %1, ptr noundef %2) #1 {
  %4 = alloca ptr, align 8
  %5 = alloca ptr, align 8
  %6 = alloca ptr, align 8
  %7 = alloca [4 x [3 x double]], align 16
  %8 = alloca double, align 8
  %9 = alloca i32, align 4
  %10 = alloca i32, align 4
  %11 = alloca i32, align 4
  store ptr %0, ptr %4, align 8, !tbaa !29
  store ptr %1, ptr %5, align 8, !tbaa !194
  store ptr %2, ptr %6, align 8, !tbaa !174
  call void @llvm.lifetime.start.p0(i64 96, ptr %7) #13
  call void @llvm.lifetime.start.p0(i64 8, ptr %8) #13
  call void @llvm.lifetime.start.p0(i64 4, ptr %9) #13
  call void @llvm.lifetime.start.p0(i64 4, ptr %10) #13
  call void @llvm.lifetime.start.p0(i64 4, ptr %11) #13
  store i32 0, ptr %9, align 4, !tbaa !39
  br label %12

12:                                               ; preds = %62, %3
  %13 = load i32, ptr %9, align 4, !tbaa !39
  %14 = icmp slt i32 %13, 3
  br i1 %14, label %15, label %65

15:                                               ; preds = %12
  store i32 0, ptr %10, align 4, !tbaa !39
  br label %16

16:                                               ; preds = %58, %15
  %17 = load i32, ptr %10, align 4, !tbaa !39
  %18 = icmp slt i32 %17, 3
  br i1 %18, label %19, label %61

19:                                               ; preds = %16
  %20 = load i32, ptr %9, align 4, !tbaa !39
  %21 = sext i32 %20 to i64
  %22 = getelementptr inbounds [4 x [3 x double]], ptr %7, i64 0, i64 %21
  %23 = load i32, ptr %10, align 4, !tbaa !39
  %24 = sext i32 %23 to i64
  %25 = getelementptr inbounds [3 x double], ptr %22, i64 0, i64 %24
  store double 0.000000e+00, ptr %25, align 8, !tbaa !99
  store i32 0, ptr %11, align 4, !tbaa !39
  br label %26

26:                                               ; preds = %54, %19
  %27 = load i32, ptr %11, align 4, !tbaa !39
  %28 = icmp slt i32 %27, 3
  br i1 %28, label %29, label %57

29:                                               ; preds = %26
  %30 = load ptr, ptr %6, align 8, !tbaa !174
  %31 = load i32, ptr %9, align 4, !tbaa !39
  %32 = sext i32 %31 to i64
  %33 = getelementptr inbounds [3 x double], ptr %30, i64 %32
  %34 = load i32, ptr %11, align 4, !tbaa !39
  %35 = sext i32 %34 to i64
  %36 = getelementptr inbounds [3 x double], ptr %33, i64 0, i64 %35
  %37 = load double, ptr %36, align 8, !tbaa !99
  %38 = load i32, ptr %11, align 4, !tbaa !39
  %39 = sext i32 %38 to i64
  %40 = getelementptr inbounds [3 x [3 x float]], ptr @xyz2rgb, i64 0, i64 %39
  %41 = load i32, ptr %10, align 4, !tbaa !39
  %42 = sext i32 %41 to i64
  %43 = getelementptr inbounds [3 x float], ptr %40, i64 0, i64 %42
  %44 = load float, ptr %43, align 4, !tbaa !73
  %45 = fpext nsz float %44 to double
  %46 = load i32, ptr %9, align 4, !tbaa !39
  %47 = sext i32 %46 to i64
  %48 = getelementptr inbounds [4 x [3 x double]], ptr %7, i64 0, i64 %47
  %49 = load i32, ptr %10, align 4, !tbaa !39
  %50 = sext i32 %49 to i64
  %51 = getelementptr inbounds [3 x double], ptr %48, i64 0, i64 %50
  %52 = load double, ptr %51, align 8, !tbaa !99
  %53 = call nsz double @llvm.fmuladd.f64(double %37, double %45, double %52)
  store double %53, ptr %51, align 8, !tbaa !99
  br label %54

54:                                               ; preds = %29
  %55 = load i32, ptr %11, align 4, !tbaa !39
  %56 = add nsw i32 %55, 1
  store i32 %56, ptr %11, align 4, !tbaa !39
  br label %26, !llvm.loop !196

57:                                               ; preds = %26
  br label %58

58:                                               ; preds = %57
  %59 = load i32, ptr %10, align 4, !tbaa !39
  %60 = add nsw i32 %59, 1
  store i32 %60, ptr %10, align 4, !tbaa !39
  br label %16, !llvm.loop !197

61:                                               ; preds = %16
  br label %62

62:                                               ; preds = %61
  %63 = load i32, ptr %9, align 4, !tbaa !39
  %64 = add nsw i32 %63, 1
  store i32 %64, ptr %9, align 4, !tbaa !39
  br label %12, !llvm.loop !198

65:                                               ; preds = %12
  store i32 0, ptr %9, align 4, !tbaa !39
  br label %66

66:                                               ; preds = %116, %65
  %67 = load i32, ptr %9, align 4, !tbaa !39
  %68 = icmp slt i32 %67, 3
  br i1 %68, label %69, label %119

69:                                               ; preds = %66
  store i32 0, ptr %10, align 4, !tbaa !39
  store double 0.000000e+00, ptr %8, align 8, !tbaa !99
  br label %70

70:                                               ; preds = %83, %69
  %71 = load i32, ptr %10, align 4, !tbaa !39
  %72 = icmp slt i32 %71, 3
  br i1 %72, label %73, label %86

73:                                               ; preds = %70
  %74 = load i32, ptr %9, align 4, !tbaa !39
  %75 = sext i32 %74 to i64
  %76 = getelementptr inbounds [4 x [3 x double]], ptr %7, i64 0, i64 %75
  %77 = load i32, ptr %10, align 4, !tbaa !39
  %78 = sext i32 %77 to i64
  %79 = getelementptr inbounds [3 x double], ptr %76, i64 0, i64 %78
  %80 = load double, ptr %79, align 8, !tbaa !99
  %81 = load double, ptr %8, align 8, !tbaa !99
  %82 = fadd nsz double %81, %80
  store double %82, ptr %8, align 8, !tbaa !99
  br label %83

83:                                               ; preds = %73
  %84 = load i32, ptr %10, align 4, !tbaa !39
  %85 = add nsw i32 %84, 1
  store i32 %85, ptr %10, align 4, !tbaa !39
  br label %70, !llvm.loop !199

86:                                               ; preds = %70
  %87 = load double, ptr %8, align 8, !tbaa !99
  %88 = fcmp nsz une double %87, 0.000000e+00
  br i1 %88, label %90, label %89

89:                                               ; preds = %86
  store double 1.000000e+00, ptr %8, align 8, !tbaa !99
  br label %90

90:                                               ; preds = %89, %86
  store i32 0, ptr %10, align 4, !tbaa !39
  br label %91

91:                                               ; preds = %104, %90
  %92 = load i32, ptr %10, align 4, !tbaa !39
  %93 = icmp slt i32 %92, 3
  br i1 %93, label %94, label %107

94:                                               ; preds = %91
  %95 = load double, ptr %8, align 8, !tbaa !99
  %96 = load i32, ptr %9, align 4, !tbaa !39
  %97 = sext i32 %96 to i64
  %98 = getelementptr inbounds [4 x [3 x double]], ptr %7, i64 0, i64 %97
  %99 = load i32, ptr %10, align 4, !tbaa !39
  %100 = sext i32 %99 to i64
  %101 = getelementptr inbounds [3 x double], ptr %98, i64 0, i64 %100
  %102 = load double, ptr %101, align 8, !tbaa !99
  %103 = fdiv nsz double %102, %95
  store double %103, ptr %101, align 8, !tbaa !99
  br label %104

104:                                              ; preds = %94
  %105 = load i32, ptr %10, align 4, !tbaa !39
  %106 = add nsw i32 %105, 1
  store i32 %106, ptr %10, align 4, !tbaa !39
  br label %91, !llvm.loop !200

107:                                              ; preds = %91
  %108 = load double, ptr %8, align 8, !tbaa !99
  %109 = fdiv nsz double 1.000000e+00, %108
  %110 = fptrunc nsz double %109 to float
  %111 = load ptr, ptr %4, align 8, !tbaa !29
  %112 = getelementptr inbounds nuw %struct.TiffContext, ptr %111, i32 0, i32 35
  %113 = load i32, ptr %9, align 4, !tbaa !39
  %114 = sext i32 %113 to i64
  %115 = getelementptr inbounds [4 x float], ptr %112, i64 0, i64 %114
  store float %110, ptr %115, align 4, !tbaa !73
  br label %116

116:                                              ; preds = %107
  %117 = load i32, ptr %9, align 4, !tbaa !39
  %118 = add nsw i32 %117, 1
  store i32 %118, ptr %9, align 4, !tbaa !39
  br label %66, !llvm.loop !201

119:                                              ; preds = %66
  call void @llvm.lifetime.end.p0(i64 4, ptr %11) #13
  call void @llvm.lifetime.end.p0(i64 4, ptr %10) #13
  call void @llvm.lifetime.end.p0(i64 4, ptr %9) #13
  call void @llvm.lifetime.end.p0(i64 8, ptr %8) #13
  call void @llvm.lifetime.end.p0(i64 96, ptr %7) #13
  ret void
}