; Function Attrs: nofree norecurse nosync nounwind memory(argmem: readwrite) uwtable
define internal fastcc void @camera_xyz_coeff(ptr noundef writeonly captures(none) %0, ptr noundef nonnull readonly captures(none) %1) unnamed_addr #4 {
  %3 = alloca [4 x [3 x double]], align 16
  call void @llvm.lifetime.start.p0(i64 96, ptr nonnull %3) #16
  br label %.preheader2

.preheader2:                                      ; preds = %2, %16
  %indvars.iv16 = phi i64 [ 0, %2 ], [ %indvars.iv.next17, %16 ]
  br label %5

.preheader1:                                      ; preds = %16
  %4 = getelementptr inbounds nuw i8, ptr %0, i64 1356
  br label %.preheader

5:                                                ; preds = %.preheader2, %15
  %indvars.iv12 = phi i64 [ 0, %.preheader2 ], [ %indvars.iv.next13, %15 ]
  %6 = getelementptr inbounds nuw [4 x [3 x double]], ptr %3, i64 0, i64 %indvars.iv16, i64 %indvars.iv12
  br label %7

7:                                                ; preds = %5, %7
  %indvars.iv = phi i64 [ 0, %5 ], [ %indvars.iv.next, %7 ]
  %8 = phi double [ 0.000000e+00, %5 ], [ %14, %7 ]
  %9 = getelementptr inbounds nuw [3 x double], ptr %1, i64 %indvars.iv16, i64 %indvars.iv
  %10 = load double, ptr %9, align 8, !tbaa !115
  %11 = getelementptr inbounds nuw [3 x [3 x float]], ptr @xyz2rgb, i64 0, i64 %indvars.iv, i64 %indvars.iv12
  %12 = load float, ptr %11, align 4, !tbaa !70
  %13 = fpext nsz float %12 to double
  %14 = tail call nsz double @llvm.fmuladd.f64(double %10, double %13, double %8)
  %indvars.iv.next = add nuw nsw i64 %indvars.iv, 1
  %exitcond.not = icmp eq i64 %indvars.iv.next, 3
  br i1 %exitcond.not, label %15, label %7, !llvm.loop !221

15:                                               ; preds = %7
  store double %14, ptr %6, align 8, !tbaa !115
  %indvars.iv.next13 = add nuw nsw i64 %indvars.iv12, 1
  %exitcond15.not = icmp eq i64 %indvars.iv.next13, 3
  br i1 %exitcond15.not, label %16, label %5, !llvm.loop !222

16:                                               ; preds = %15
  %indvars.iv.next17 = add nuw nsw i64 %indvars.iv16, 1
  %exitcond19.not = icmp eq i64 %indvars.iv.next17, 3
  br i1 %exitcond19.not, label %.preheader1, label %.preheader2, !llvm.loop !223

.preheader:                                       ; preds = %.preheader1, %27
  %indvars.iv28 = phi i64 [ 0, %.preheader1 ], [ %indvars.iv.next29, %27 ]
  br label %17

17:                                               ; preds = %.preheader, %17
  %indvars.iv20 = phi i64 [ 0, %.preheader ], [ %indvars.iv.next21, %17 ]
  %.0336 = phi double [ 0.000000e+00, %.preheader ], [ %20, %17 ]
  %18 = getelementptr inbounds nuw [4 x [3 x double]], ptr %3, i64 0, i64 %indvars.iv28, i64 %indvars.iv20
  %19 = load double, ptr %18, align 8, !tbaa !115
  %20 = fadd nsz double %.0336, %19
  %indvars.iv.next21 = add nuw nsw i64 %indvars.iv20, 1
  %exitcond23.not = icmp eq i64 %indvars.iv.next21, 3
  br i1 %exitcond23.not, label %21, label %17, !llvm.loop !224

21:                                               ; preds = %17
  %22 = fcmp nsz une double %20, 0.000000e+00
  %.134 = select nsz i1 %22, double %20, double 1.000000e+00
  br label %23

23:                                               ; preds = %21, %23
  %indvars.iv24 = phi i64 [ 0, %21 ], [ %indvars.iv.next25, %23 ]
  %24 = getelementptr inbounds nuw [4 x [3 x double]], ptr %3, i64 0, i64 %indvars.iv28, i64 %indvars.iv24
  %25 = load double, ptr %24, align 8, !tbaa !115
  %26 = fdiv nsz double %25, %.134
  store double %26, ptr %24, align 8, !tbaa !115
  %indvars.iv.next25 = add nuw nsw i64 %indvars.iv24, 1
  %exitcond27.not = icmp eq i64 %indvars.iv.next25, 3
  br i1 %exitcond27.not, label %27, label %23, !llvm.loop !225

27:                                               ; preds = %23
  %28 = fdiv nsz double 1.000000e+00, %.134
  %29 = fptrunc nsz double %28 to float
  %30 = getelementptr inbounds nuw [4 x float], ptr %4, i64 0, i64 %indvars.iv28
  store float %29, ptr %30, align 4, !tbaa !70
  %indvars.iv.next29 = add nuw nsw i64 %indvars.iv28, 1
  %exitcond31.not = icmp eq i64 %indvars.iv.next29, 3
  br i1 %exitcond31.not, label %31, label %.preheader, !llvm.loop !226

31:                                               ; preds = %27
  call void @llvm.lifetime.end.p0(i64 96, ptr nonnull %3) #16
  ret void
}